; Function Attrs: mustprogress uwtable
define noundef i32 @_ZN6icu_7714Transliterator22countAvailableVariantsERKNS_13UnicodeStringES3_(ptr noundef nonnull align 8 dereferenceable(64) %0, ptr noundef nonnull align 8 dereferenceable(64) %1) local_unnamed_addr #1 align 2 personality ptr @__gxx_personality_v0 {
  %3 = alloca i32, align 4
  tail call void @umtx_lock_77(ptr noundef nonnull @_ZL13registryMutex)
  call void @llvm.lifetime.start.p0(i64 4, ptr nonnull %3) #21
  store i32 0, ptr %3, align 4, !tbaa !13
  %4 = load ptr, ptr @_ZL8registry, align 8, !tbaa !49
  %.not = icmp eq ptr %4, null
  br i1 %.not, label %5, label %8

5:                                                ; preds = %2
  %6 = invoke noundef signext i8 @_ZN6icu_7714Transliterator18initializeRegistryER10UErrorCode(ptr noundef nonnull align 4 dereferenceable(4) %3)
          to label %7 unwind label %15

7:                                                ; preds = %5
  %.not3 = icmp eq i8 %6, 0
  br i1 %.not3, label %_ZN6icu_7714Transliterator23_countAvailableVariantsERKNS_13UnicodeStringES3_.exit, label %._crit_edge

._crit_edge:                                      ; preds = %7
  %.pre = load ptr, ptr @_ZL8registry, align 8, !tbaa !49
  br label %8

8:                                                ; preds = %._crit_edge, %2
  %9 = phi ptr [ %.pre, %._crit_edge ], [ %4, %2 ]
  %10 = invoke noundef i32 @_ZNK6icu_7722TransliteratorRegistry22countAvailableVariantsERKNS_13UnicodeStringES3_(ptr noundef nonnull align 8 dereferenceable(312) %9, ptr noundef nonnull align 8 dereferenceable(64) %0, ptr noundef nonnull align 8 dereferenceable(64) %1)
          to label %_ZN6icu_7714Transliterator23_countAvailableVariantsERKNS_13UnicodeStringES3_.exit unwind label %15

_ZN6icu_7714Transliterator23_countAvailableVariantsERKNS_13UnicodeStringES3_.exit: ; preds = %8, %7
  %11 = phi i32 [ 0, %7 ], [ %10, %8 ]
  call void @llvm.lifetime.end.p0(i64 4, ptr nonnull %3) #21
  invoke void @umtx_unlock_77(ptr noundef nonnull @_ZL13registryMutex)
          to label %_ZN6icu_775MutexD2Ev.exit unwind label %12

12:                                               ; preds = %_ZN6icu_7714Transliterator23_countAvailableVariantsERKNS_13UnicodeStringES3_.exit
  %13 = landingpad { ptr, i32 }
          catch ptr null
  %14 = extractvalue { ptr, i32 } %13, 0
  call void @__clang_call_terminate(ptr %14) #23
  unreachable

_ZN6icu_775MutexD2Ev.exit:                        ; preds = %_ZN6icu_7714Transliterator23_countAvailableVariantsERKNS_13UnicodeStringES3_.exit
  ret i32 %11

15:                                               ; preds = %8, %5
  %16 = landingpad { ptr, i32 }
          cleanup
  call void @llvm.lifetime.end.p0(i64 4, ptr nonnull %3) #21
  invoke void @umtx_unlock_77(ptr noundef nonnull @_ZL13registryMutex)
          to label %_ZN6icu_775MutexD2Ev.exit4 unwind label %17

17:                                               ; preds = %15
  %18 = landingpad { ptr, i32 }
          catch ptr null
  %19 = extractvalue { ptr, i32 } %18, 0
  call void @__clang_call_terminate(ptr %19) #23
  unreachable

_ZN6icu_775MutexD2Ev.exit4:                       ; preds = %15
  resume { ptr, i32 } %16
}